; Function Attrs: nounwind uwtable
define void @Wlc_NtkSimulateTest(ptr noundef %0) local_unnamed_addr #0 {
Vec_IntFree.exit:
  %1 = tail call noalias dereferenceable_or_null(16) ptr @malloc(i64 noundef 16) #12
  %2 = getelementptr inbounds nuw i8, ptr %1, i64 4
  store i32 16, ptr %1, align 8, !tbaa !84
  %3 = tail call noalias dereferenceable_or_null(64) ptr @malloc(i64 noundef 64) #12
  %4 = getelementptr inbounds nuw i8, ptr %1, i64 8
  store ptr %3, ptr %4, align 8, !tbaa !49
  store i32 1, ptr %3, align 4, !tbaa !50
  %5 = getelementptr inbounds nuw i8, ptr %3, i64 4
  store i32 2, ptr %5, align 4, !tbaa !50
  store i32 3, ptr %2, align 4, !tbaa !47
  %6 = getelementptr inbounds nuw i8, ptr %3, i64 8
  store i32 3, ptr %6, align 4, !tbaa !50
  %7 = tail call ptr @Wlc_NtkSimulate(ptr noundef %0, ptr noundef nonnull %1, i32 noundef 2, i32 noundef 2)
  tail call void @Wlc_NtkSimulatePrint(ptr noundef %0, ptr noundef nonnull %1, ptr noundef %7, i32 noundef 2, i32 noundef 2)
  tail call void @Wlc_NtkDeleteSim(ptr noundef %7)
  tail call void @free(ptr noundef nonnull %3) #11
  tail call void @free(ptr noundef nonnull %1) #11
  ret void
}